; Function Attrs: nofree norecurse nosync nounwind memory(read, inaccessiblemem: none) uwtable
define dso_local range(i32 0, 2) i32 @has_racy_timestamp(ptr noundef readonly captures(none) %0) local_unnamed_addr #18 {
  %2 = getelementptr inbounds nuw i8, ptr %0, i64 12
  %3 = load i32, ptr %2, align 4, !tbaa !34
  %4 = icmp sgt i32 %3, 0
  br i1 %4, label %.lr.ph, label %._crit_edge

.lr.ph:                                           ; preds = %1
  %5 = load ptr, ptr %0, align 8, !tbaa !4
  %6 = getelementptr i8, ptr %0, i64 48
  %wide.trip.count = zext nneg i32 %3 to i64
  br label %7

7:                                                ; preds = %.lr.ph, %is_racy_timestamp.exit.thread
  %indvars.iv = phi i64 [ 0, %.lr.ph ], [ %indvars.iv.next, %is_racy_timestamp.exit.thread ]
  %8 = getelementptr inbounds nuw ptr, ptr %5, i64 %indvars.iv
  %9 = load ptr, ptr %8, align 8, !tbaa !25
  %10 = getelementptr inbounds nuw i8, ptr %9, i64 52
  %11 = load i32, ptr %10, align 4, !tbaa !32
  %12 = and i32 %11, 61440
  %13 = icmp eq i32 %12, 57344
  br i1 %13, label %is_racy_timestamp.exit.thread, label %14

14:                                               ; preds = %7
  %.val.i = load i32, ptr %6, align 8, !tbaa !49
  %.not.i.i = icmp eq i32 %.val.i, 0
  br i1 %.not.i.i, label %is_racy_timestamp.exit.thread, label %is_racy_timestamp.exit

is_racy_timestamp.exit:                           ; preds = %14
  %15 = getelementptr inbounds nuw i8, ptr %9, i64 24
  %16 = load i32, ptr %15, align 4, !tbaa !50
  %.not12 = icmp ugt i32 %.val.i, %16
  br i1 %.not12, label %is_racy_timestamp.exit.thread, label %._crit_edge

is_racy_timestamp.exit.thread:                    ; preds = %14, %7, %is_racy_timestamp.exit
  %indvars.iv.next = add nuw nsw i64 %indvars.iv, 1
  %exitcond.not = icmp eq i64 %indvars.iv.next, %wide.trip.count
  br i1 %exitcond.not, label %._crit_edge, label %7, !llvm.loop !171

._crit_edge:                                      ; preds = %is_racy_timestamp.exit, %is_racy_timestamp.exit.thread, %1
  %.2 = phi i32 [ 0, %1 ], [ 0, %is_racy_timestamp.exit.thread ], [ 1, %is_racy_timestamp.exit ]
  ret i32 %.2
}